; Function Attrs: nofree norecurse nosync nounwind memory(argmem: readwrite) uwtable
define void @stranspose(i32 noundef %0, i32 noundef %1, float noundef %2, ptr noundef readonly captures(none) %3, i32 noundef %4, ptr noundef writeonly captures(none) %5, i32 noundef %6) local_unnamed_addr #4 {
  %.not18 = icmp eq i32 %1, 0
  %.not1516 = icmp eq i32 %0, 0
  %or.cond = or i1 %.not18, %.not1516
  br i1 %or.cond, label %._crit_edge20, label %.preheader.preheader

.preheader.preheader:                             ; preds = %7
  %8 = sext i32 %4 to i64
  %9 = zext i32 %0 to i64
  %10 = sext i32 %6 to i64
  %11 = zext i32 %1 to i64
  br label %.preheader

.preheader:                                       ; preds = %.preheader.preheader, %._crit_edge
  %indvars.iv23 = phi i64 [ 0, %.preheader.preheader ], [ %indvars.iv.next24, %._crit_edge ]
  %12 = mul nsw i64 %indvars.iv23, %10
  %invariant.gep = getelementptr float, ptr %3, i64 %indvars.iv23
  %invariant.gep26 = getelementptr float, ptr %5, i64 %12
  br label %13

13:                                               ; preds = %.preheader, %13
  %indvars.iv = phi i64 [ 0, %.preheader ], [ %indvars.iv.next, %13 ]
  %14 = mul nsw i64 %indvars.iv, %8
  %gep = getelementptr float, ptr %invariant.gep, i64 %14
  %15 = load float, ptr %gep, align 4, !tbaa !3
  %16 = fmul float %2, %15
  %gep27 = getelementptr float, ptr %invariant.gep26, i64 %indvars.iv
  store float %16, ptr %gep27, align 4, !tbaa !3
  %indvars.iv.next = add nuw nsw i64 %indvars.iv, 1
  %.not15 = icmp eq i64 %indvars.iv.next, %9
  br i1 %.not15, label %._crit_edge, label %13, !llvm.loop !20

._crit_edge:                                      ; preds = %13
  %indvars.iv.next24 = add nuw nsw i64 %indvars.iv23, 1
  %.not = icmp eq i64 %indvars.iv.next24, %11
  br i1 %.not, label %._crit_edge20, label %.preheader, !llvm.loop !21

._crit_edge20:                                    ; preds = %._crit_edge, %7
  ret void
}